ARM GAS  /tmp/ccn9rPOQ.s 			page 1


   1              		.cpu cortex-m4
   2              		.arch armv7e-m
   3              		.fpu fpv4-sp-d16
   4              		.eabi_attribute 27, 1
   5              		.eabi_attribute 28, 1
   6              		.eabi_attribute 20, 1
   7              		.eabi_attribute 21, 1
   8              		.eabi_attribute 23, 3
   9              		.eabi_attribute 24, 1
  10              		.eabi_attribute 25, 1
  11              		.eabi_attribute 26, 1
  12              		.eabi_attribute 30, 1
  13              		.eabi_attribute 34, 1
  14              		.eabi_attribute 18, 4
  15              		.file	"mission.c"
  16              		.text
  17              	.Ltext0:
  18              		.cfi_sections	.debug_frame
  19              		.file 1 "Core/Src/mission.c"
  20              		.section	.text.mission_is_confirmed,"ax",%progbits
  21              		.align	1
  22              		.global	mission_is_confirmed
  23              		.syntax unified
  24              		.thumb
  25              		.thumb_func
  27              	mission_is_confirmed:
  28              	.LFB133:
   1:Core/Src/mission.c **** #include "mission.h"
   2:Core/Src/mission.c **** #include "spi.h"
   3:Core/Src/mission.c **** #include "utils.h"
   4:Core/Src/mission.c **** #include "ws2812_spi.h"
   5:Core/Src/mission.c **** 
   6:Core/Src/mission.c **** #define PERIOD_2HZ_100us 2500 // Duty cycle time to get 2Hz (toggle at 4Hz)
   7:Core/Src/mission.c **** 
   8:Core/Src/mission.c **** static bool confirmed = false;
   9:Core/Src/mission.c **** static mission_t current_mission = MISSION_NO;
  10:Core/Src/mission.c **** 
  11:Core/Src/mission.c **** void mission_confirm()
  12:Core/Src/mission.c **** {
  13:Core/Src/mission.c ****     if (mission_get() != MISSION_NO)
  14:Core/Src/mission.c ****         confirmed = true;
  15:Core/Src/mission.c **** }
  16:Core/Src/mission.c **** 
  17:Core/Src/mission.c **** bool mission_is_confirmed()
  18:Core/Src/mission.c **** {
  29              		.loc 1 18 1 view -0
  30              		.cfi_startproc
  31              		@ args = 0, pretend = 0, frame = 0
  32              		@ frame_needed = 0, uses_anonymous_args = 0
  33              		@ link register save eliminated.
  19:Core/Src/mission.c ****     return confirmed;
  34              		.loc 1 19 5 view .LVU1
  20:Core/Src/mission.c **** }
  35              		.loc 1 20 1 is_stmt 0 view .LVU2
  36 0000 014B     		ldr	r3, .L2
  37 0002 1878     		ldrb	r0, [r3]	@ zero_extendqisi2
  38 0004 7047     		bx	lr
ARM GAS  /tmp/ccn9rPOQ.s 			page 2


  39              	.L3:
  40 0006 00BF     		.align	2
  41              	.L2:
  42 0008 00000000 		.word	confirmed
  43              		.cfi_endproc
  44              	.LFE133:
  46              		.section	.text.mission_get,"ax",%progbits
  47              		.align	1
  48              		.global	mission_get
  49              		.syntax unified
  50              		.thumb
  51              		.thumb_func
  53              	mission_get:
  54              	.LFB135:
  21:Core/Src/mission.c **** 
  22:Core/Src/mission.c **** void mission_select_next()
  23:Core/Src/mission.c **** {
  24:Core/Src/mission.c ****     if (!confirmed)
  25:Core/Src/mission.c ****     {
  26:Core/Src/mission.c ****         // Cycles through the missions, rolling back to 0 at the end
  27:Core/Src/mission.c ****         mission_set((mission_get() % (NUM_MISSIONS - 1)) + 1);
  28:Core/Src/mission.c ****     }
  29:Core/Src/mission.c **** }
  30:Core/Src/mission.c **** 
  31:Core/Src/mission.c **** mission_t mission_get()
  32:Core/Src/mission.c **** {
  55              		.loc 1 32 1 is_stmt 1 view -0
  56              		.cfi_startproc
  57              		@ args = 0, pretend = 0, frame = 0
  58              		@ frame_needed = 0, uses_anonymous_args = 0
  59              		@ link register save eliminated.
  33:Core/Src/mission.c ****     return current_mission;
  60              		.loc 1 33 5 view .LVU4
  34:Core/Src/mission.c **** }
  61              		.loc 1 34 1 is_stmt 0 view .LVU5
  62 0000 014B     		ldr	r3, .L5
  63 0002 1878     		ldrb	r0, [r3]	@ zero_extendqisi2
  64 0004 7047     		bx	lr
  65              	.L6:
  66 0006 00BF     		.align	2
  67              	.L5:
  68 0008 00000000 		.word	current_mission
  69              		.cfi_endproc
  70              	.LFE135:
  72              		.section	.text.mission_confirm,"ax",%progbits
  73              		.align	1
  74              		.global	mission_confirm
  75              		.syntax unified
  76              		.thumb
  77              		.thumb_func
  79              	mission_confirm:
  80              	.LFB132:
  12:Core/Src/mission.c ****     if (mission_get() != MISSION_NO)
  81              		.loc 1 12 1 is_stmt 1 view -0
  82              		.cfi_startproc
  83              		@ args = 0, pretend = 0, frame = 0
  84              		@ frame_needed = 0, uses_anonymous_args = 0
ARM GAS  /tmp/ccn9rPOQ.s 			page 3


  85 0000 08B5     		push	{r3, lr}
  86              		.cfi_def_cfa_offset 8
  87              		.cfi_offset 3, -8
  88              		.cfi_offset 14, -4
  13:Core/Src/mission.c ****         confirmed = true;
  89              		.loc 1 13 5 view .LVU7
  13:Core/Src/mission.c ****         confirmed = true;
  90              		.loc 1 13 9 is_stmt 0 view .LVU8
  91 0002 FFF7FEFF 		bl	mission_get
  92              	.LVL0:
  13:Core/Src/mission.c ****         confirmed = true;
  93              		.loc 1 13 8 discriminator 1 view .LVU9
  94 0006 10B1     		cbz	r0, .L7
  14:Core/Src/mission.c **** }
  95              		.loc 1 14 9 is_stmt 1 view .LVU10
  14:Core/Src/mission.c **** }
  96              		.loc 1 14 19 is_stmt 0 view .LVU11
  97 0008 014B     		ldr	r3, .L10
  98 000a 0122     		movs	r2, #1
  99 000c 1A70     		strb	r2, [r3]
 100              	.L7:
  15:Core/Src/mission.c **** 
 101              		.loc 1 15 1 view .LVU12
 102 000e 08BD     		pop	{r3, pc}
 103              	.L11:
 104              		.align	2
 105              	.L10:
 106 0010 00000000 		.word	confirmed
 107              		.cfi_endproc
 108              	.LFE132:
 110              		.section	.text.mission_set,"ax",%progbits
 111              		.align	1
 112              		.global	mission_set
 113              		.syntax unified
 114              		.thumb
 115              		.thumb_func
 117              	mission_set:
 118              	.LVL1:
 119              	.LFB136:
  35:Core/Src/mission.c **** 
  36:Core/Src/mission.c **** void mission_set(mission_t mission)
  37:Core/Src/mission.c **** {
 120              		.loc 1 37 1 is_stmt 1 view -0
 121              		.cfi_startproc
 122              		@ args = 0, pretend = 0, frame = 0
 123              		@ frame_needed = 0, uses_anonymous_args = 0
 124              		@ link register save eliminated.
  38:Core/Src/mission.c ****     if (!confirmed)
 125              		.loc 1 38 5 view .LVU14
 126              		.loc 1 38 9 is_stmt 0 view .LVU15
 127 0000 024B     		ldr	r3, .L14
 128 0002 1B78     		ldrb	r3, [r3]	@ zero_extendqisi2
 129              		.loc 1 38 8 view .LVU16
 130 0004 0BB9     		cbnz	r3, .L12
  39:Core/Src/mission.c ****         current_mission = mission;
 131              		.loc 1 39 9 is_stmt 1 view .LVU17
 132              		.loc 1 39 25 is_stmt 0 view .LVU18
ARM GAS  /tmp/ccn9rPOQ.s 			page 4


 133 0006 024B     		ldr	r3, .L14+4
 134 0008 1870     		strb	r0, [r3]
 135              	.L12:
  40:Core/Src/mission.c **** }
 136              		.loc 1 40 1 view .LVU19
 137 000a 7047     		bx	lr
 138              	.L15:
 139              		.align	2
 140              	.L14:
 141 000c 00000000 		.word	confirmed
 142 0010 00000000 		.word	current_mission
 143              		.cfi_endproc
 144              	.LFE136:
 146              		.section	.text.mission_select_next,"ax",%progbits
 147              		.align	1
 148              		.global	mission_select_next
 149              		.syntax unified
 150              		.thumb
 151              		.thumb_func
 153              	mission_select_next:
 154              	.LFB134:
  23:Core/Src/mission.c ****     if (!confirmed)
 155              		.loc 1 23 1 is_stmt 1 view -0
 156              		.cfi_startproc
 157              		@ args = 0, pretend = 0, frame = 0
 158              		@ frame_needed = 0, uses_anonymous_args = 0
 159 0000 08B5     		push	{r3, lr}
 160              		.cfi_def_cfa_offset 8
 161              		.cfi_offset 3, -8
 162              		.cfi_offset 14, -4
  24:Core/Src/mission.c ****     {
 163              		.loc 1 24 5 view .LVU21
  24:Core/Src/mission.c ****     {
 164              		.loc 1 24 9 is_stmt 0 view .LVU22
 165 0002 0B4B     		ldr	r3, .L20
 166 0004 1B78     		ldrb	r3, [r3]	@ zero_extendqisi2
  24:Core/Src/mission.c ****     {
 167              		.loc 1 24 8 view .LVU23
 168 0006 03B1     		cbz	r3, .L19
 169              	.L16:
  29:Core/Src/mission.c **** 
 170              		.loc 1 29 1 view .LVU24
 171 0008 08BD     		pop	{r3, pc}
 172              	.L19:
  27:Core/Src/mission.c ****     }
 173              		.loc 1 27 9 is_stmt 1 view .LVU25
  27:Core/Src/mission.c ****     }
 174              		.loc 1 27 22 is_stmt 0 view .LVU26
 175 000a FFF7FEFF 		bl	mission_get
 176              	.LVL2:
  27:Core/Src/mission.c ****     }
 177              		.loc 1 27 9 discriminator 1 view .LVU27
 178 000e 094B     		ldr	r3, .L20+4
 179 0010 A3FB0023 		umull	r2, r3, r3, r0
 180 0014 C21A     		subs	r2, r0, r3
 181 0016 03EB5203 		add	r3, r3, r2, lsr #1
 182 001a 9B08     		lsrs	r3, r3, #2
ARM GAS  /tmp/ccn9rPOQ.s 			page 5


 183 001c C3EBC303 		rsb	r3, r3, r3, lsl #3
 184 0020 C01A     		subs	r0, r0, r3
 185 0022 C0B2     		uxtb	r0, r0
  27:Core/Src/mission.c ****     }
 186              		.loc 1 27 58 discriminator 1 view .LVU28
 187 0024 0130     		adds	r0, r0, #1
  27:Core/Src/mission.c ****     }
 188              		.loc 1 27 9 discriminator 1 view .LVU29
 189 0026 C0B2     		uxtb	r0, r0
 190 0028 FFF7FEFF 		bl	mission_set
 191              	.LVL3:
  29:Core/Src/mission.c **** 
 192              		.loc 1 29 1 view .LVU30
 193 002c ECE7     		b	.L16
 194              	.L21:
 195 002e 00BF     		.align	2
 196              	.L20:
 197 0030 00000000 		.word	confirmed
 198 0034 25499224 		.word	613566757
 199              		.cfi_endproc
 200              	.LFE134:
 202              		.section	.text.mission_run,"ax",%progbits
 203              		.align	1
 204              		.global	mission_run
 205              		.syntax unified
 206              		.thumb
 207              		.thumb_func
 209              	mission_run:
 210              	.LFB137:
  41:Core/Src/mission.c **** 
  42:Core/Src/mission.c **** void mission_run()
  43:Core/Src/mission.c **** {
 211              		.loc 1 43 1 is_stmt 1 view -0
 212              		.cfi_startproc
 213              		@ args = 0, pretend = 0, frame = 0
 214              		@ frame_needed = 0, uses_anonymous_args = 0
 215 0000 08B5     		push	{r3, lr}
 216              		.cfi_def_cfa_offset 8
 217              		.cfi_offset 3, -8
 218              		.cfi_offset 14, -4
  44:Core/Src/mission.c ****     static uint32_t delay_100us_last = 0;
 219              		.loc 1 44 5 view .LVU32
  45:Core/Src/mission.c ****     static mission_t out_mission;
 220              		.loc 1 45 5 view .LVU33
  46:Core/Src/mission.c **** 
  47:Core/Src/mission.c ****     if (confirmed)
 221              		.loc 1 47 5 view .LVU34
 222              		.loc 1 47 9 is_stmt 0 view .LVU35
 223 0002 224B     		ldr	r3, .L31
 224 0004 1B78     		ldrb	r3, [r3]	@ zero_extendqisi2
 225              		.loc 1 47 8 view .LVU36
 226 0006 8BB1     		cbz	r3, .L23
  48:Core/Src/mission.c ****     {
  49:Core/Src/mission.c ****         out_mission = current_mission;
 227              		.loc 1 49 9 is_stmt 1 view .LVU37
 228              		.loc 1 49 21 is_stmt 0 view .LVU38
 229 0008 214B     		ldr	r3, .L31+4
ARM GAS  /tmp/ccn9rPOQ.s 			page 6


 230 000a 1A78     		ldrb	r2, [r3]	@ zero_extendqisi2
 231 000c 214B     		ldr	r3, .L31+8
 232 000e 1A70     		strb	r2, [r3]
 233              	.L24:
  50:Core/Src/mission.c ****     }
  51:Core/Src/mission.c ****     else
  52:Core/Src/mission.c ****     {
  53:Core/Src/mission.c ****         if (current_mission == MISSION_NO)
  54:Core/Src/mission.c ****         {
  55:Core/Src/mission.c ****             // KITT
  56:Core/Src/mission.c ****             if (delay_fun(&delay_100us_last, 1000))
  57:Core/Src/mission.c ****             {
  58:Core/Src/mission.c ****                 static int8_t direction = 1;
  59:Core/Src/mission.c ****                 if (out_mission >= NUM_MISSIONS - 1)
  60:Core/Src/mission.c ****                 {
  61:Core/Src/mission.c ****                     direction = -1;
  62:Core/Src/mission.c ****                 }
  63:Core/Src/mission.c ****                 else if (out_mission <= 1)
  64:Core/Src/mission.c ****                 {
  65:Core/Src/mission.c ****                     direction = 1;
  66:Core/Src/mission.c ****                 }
  67:Core/Src/mission.c **** 
  68:Core/Src/mission.c ****                 out_mission += direction;
  69:Core/Src/mission.c ****             }
  70:Core/Src/mission.c ****         }
  71:Core/Src/mission.c ****         else
  72:Core/Src/mission.c ****         {
  73:Core/Src/mission.c ****             if (delay_fun(&delay_100us_last, PERIOD_2HZ_100us))
  74:Core/Src/mission.c ****             {
  75:Core/Src/mission.c ****                 out_mission = (out_mission == current_mission ? MISSION_NO : current_mission);
  76:Core/Src/mission.c ****             }
  77:Core/Src/mission.c ****         }
  78:Core/Src/mission.c ****     }
  79:Core/Src/mission.c **** 
  80:Core/Src/mission.c ****     ws2812_spi_set_led(1 << (out_mission - 1), WS2812_COLOR(255, 0, 0));
 234              		.loc 1 80 5 is_stmt 1 view .LVU39
 235              		.loc 1 80 42 is_stmt 0 view .LVU40
 236 0010 204B     		ldr	r3, .L31+8
 237 0012 1B78     		ldrb	r3, [r3]	@ zero_extendqisi2
 238 0014 013B     		subs	r3, r3, #1
 239              		.loc 1 80 26 view .LVU41
 240 0016 0120     		movs	r0, #1
 241 0018 9840     		lsls	r0, r0, r3
 242              		.loc 1 80 5 view .LVU42
 243 001a 4FF47F41 		mov	r1, #65280
 244 001e 80B2     		uxth	r0, r0
 245 0020 FFF7FEFF 		bl	ws2812_spi_set_led
 246              	.LVL4:
  81:Core/Src/mission.c ****     ws2812_spi_send(&hspi1);
 247              		.loc 1 81 5 is_stmt 1 view .LVU43
 248 0024 1C48     		ldr	r0, .L31+12
 249 0026 FFF7FEFF 		bl	ws2812_spi_send
 250              	.LVL5:
  82:Core/Src/mission.c **** }
 251              		.loc 1 82 1 is_stmt 0 view .LVU44
 252 002a 08BD     		pop	{r3, pc}
 253              	.L23:
ARM GAS  /tmp/ccn9rPOQ.s 			page 7


  53:Core/Src/mission.c ****         {
 254              		.loc 1 53 9 is_stmt 1 view .LVU45
  53:Core/Src/mission.c ****         {
 255              		.loc 1 53 29 is_stmt 0 view .LVU46
 256 002c 184B     		ldr	r3, .L31+4
 257 002e 1B78     		ldrb	r3, [r3]	@ zero_extendqisi2
  53:Core/Src/mission.c ****         {
 258              		.loc 1 53 12 view .LVU47
 259 0030 CBB9     		cbnz	r3, .L25
  56:Core/Src/mission.c ****             {
 260              		.loc 1 56 13 is_stmt 1 view .LVU48
  56:Core/Src/mission.c ****             {
 261              		.loc 1 56 17 is_stmt 0 view .LVU49
 262 0032 4FF47A71 		mov	r1, #1000
 263 0036 1948     		ldr	r0, .L31+16
 264 0038 FFF7FEFF 		bl	delay_fun
 265              	.LVL6:
  56:Core/Src/mission.c ****             {
 266              		.loc 1 56 16 discriminator 1 view .LVU50
 267 003c 0028     		cmp	r0, #0
 268 003e E7D0     		beq	.L24
 269              	.LBB2:
  58:Core/Src/mission.c ****                 if (out_mission >= NUM_MISSIONS - 1)
 270              		.loc 1 58 17 is_stmt 1 view .LVU51
  59:Core/Src/mission.c ****                 {
 271              		.loc 1 59 17 view .LVU52
  59:Core/Src/mission.c ****                 {
 272              		.loc 1 59 33 is_stmt 0 view .LVU53
 273 0040 144B     		ldr	r3, .L31+8
 274 0042 1B78     		ldrb	r3, [r3]	@ zero_extendqisi2
  59:Core/Src/mission.c ****                 {
 275              		.loc 1 59 20 view .LVU54
 276 0044 062B     		cmp	r3, #6
 277 0046 08D9     		bls	.L26
  61:Core/Src/mission.c ****                 }
 278              		.loc 1 61 21 is_stmt 1 view .LVU55
  61:Core/Src/mission.c ****                 }
 279              		.loc 1 61 31 is_stmt 0 view .LVU56
 280 0048 154A     		ldr	r2, .L31+20
 281 004a FF21     		movs	r1, #255
 282 004c 1170     		strb	r1, [r2]
 283              	.L27:
  68:Core/Src/mission.c ****             }
 284              		.loc 1 68 17 is_stmt 1 view .LVU57
  68:Core/Src/mission.c ****             }
 285              		.loc 1 68 29 is_stmt 0 view .LVU58
 286 004e 144A     		ldr	r2, .L31+20
 287 0050 1278     		ldrb	r2, [r2]	@ zero_extendqisi2
 288 0052 1344     		add	r3, r3, r2
 289 0054 0F4A     		ldr	r2, .L31+8
 290 0056 1370     		strb	r3, [r2]
 291 0058 DAE7     		b	.L24
 292              	.L26:
  63:Core/Src/mission.c ****                 {
 293              		.loc 1 63 22 is_stmt 1 view .LVU59
  63:Core/Src/mission.c ****                 {
 294              		.loc 1 63 25 is_stmt 0 view .LVU60
ARM GAS  /tmp/ccn9rPOQ.s 			page 8


 295 005a 012B     		cmp	r3, #1
 296 005c F7D8     		bhi	.L27
  65:Core/Src/mission.c ****                 }
 297              		.loc 1 65 21 is_stmt 1 view .LVU61
  65:Core/Src/mission.c ****                 }
 298              		.loc 1 65 31 is_stmt 0 view .LVU62
 299 005e 104A     		ldr	r2, .L31+20
 300 0060 0121     		movs	r1, #1
 301 0062 1170     		strb	r1, [r2]
 302 0064 F3E7     		b	.L27
 303              	.L25:
 304              	.LBE2:
  73:Core/Src/mission.c ****             {
 305              		.loc 1 73 13 is_stmt 1 view .LVU63
  73:Core/Src/mission.c ****             {
 306              		.loc 1 73 17 is_stmt 0 view .LVU64
 307 0066 40F6C411 		movw	r1, #2500
 308 006a 0C48     		ldr	r0, .L31+16
 309 006c FFF7FEFF 		bl	delay_fun
 310              	.LVL7:
  73:Core/Src/mission.c ****             {
 311              		.loc 1 73 16 discriminator 1 view .LVU65
 312 0070 0028     		cmp	r0, #0
 313 0072 CDD0     		beq	.L24
  75:Core/Src/mission.c ****             }
 314              		.loc 1 75 17 is_stmt 1 view .LVU66
  75:Core/Src/mission.c ****             }
 315              		.loc 1 75 44 is_stmt 0 view .LVU67
 316 0074 074B     		ldr	r3, .L31+8
 317 0076 1A78     		ldrb	r2, [r3]	@ zero_extendqisi2
 318 0078 054B     		ldr	r3, .L31+4
 319 007a 1B78     		ldrb	r3, [r3]	@ zero_extendqisi2
  75:Core/Src/mission.c ****             }
 320              		.loc 1 75 76 view .LVU68
 321 007c 9A42     		cmp	r2, r3
 322 007e 02D0     		beq	.L30
 323              	.L28:
  75:Core/Src/mission.c ****             }
 324              		.loc 1 75 29 discriminator 4 view .LVU69
 325 0080 044A     		ldr	r2, .L31+8
 326 0082 1370     		strb	r3, [r2]
 327 0084 C4E7     		b	.L24
 328              	.L30:
  75:Core/Src/mission.c ****             }
 329              		.loc 1 75 76 discriminator 2 view .LVU70
 330 0086 0023     		movs	r3, #0
 331 0088 FAE7     		b	.L28
 332              	.L32:
 333 008a 00BF     		.align	2
 334              	.L31:
 335 008c 00000000 		.word	confirmed
 336 0090 00000000 		.word	current_mission
 337 0094 00000000 		.word	out_mission.2
 338 0098 00000000 		.word	hspi1
 339 009c 00000000 		.word	delay_100us_last.1
 340 00a0 00000000 		.word	direction.0
 341              		.cfi_endproc
ARM GAS  /tmp/ccn9rPOQ.s 			page 9


 342              	.LFE137:
 344              		.section	.data.direction.0,"aw"
 347              	direction.0:
 348 0000 01       		.byte	1
 349              		.section	.bss.delay_100us_last.1,"aw",%nobits
 350              		.align	2
 353              	delay_100us_last.1:
 354 0000 00000000 		.space	4
 355              		.section	.bss.out_mission.2,"aw",%nobits
 358              	out_mission.2:
 359 0000 00       		.space	1
 360              		.section	.bss.current_mission,"aw",%nobits
 363              	current_mission:
 364 0000 00       		.space	1
 365              		.section	.bss.confirmed,"aw",%nobits
 368              	confirmed:
 369 0000 00       		.space	1
 370              		.text
 371              	.Letext0:
 372              		.file 2 "/usr/arm-none-eabi/include/machine/_default_types.h"
 373              		.file 3 "/usr/arm-none-eabi/include/sys/_stdint.h"
 374              		.file 4 "Drivers/CMSIS/Device/ST/STM32L4xx/Include/stm32l432xx.h"
 375              		.file 5 "Drivers/STM32L4xx_HAL_Driver/Inc/stm32l4xx_hal_def.h"
 376              		.file 6 "Drivers/STM32L4xx_HAL_Driver/Inc/stm32l4xx_hal_dma.h"
 377              		.file 7 "Drivers/STM32L4xx_HAL_Driver/Inc/stm32l4xx_hal_spi.h"
 378              		.file 8 "Core/Inc/mission.h"
 379              		.file 9 "Core/Inc/ws2812_spi.h"
 380              		.file 10 "Core/Inc/utils.h"
 381              		.file 11 "Core/Inc/spi.h"
ARM GAS  /tmp/ccn9rPOQ.s 			page 10

